; Function Attrs: mustprogress uwtable
define internal noundef range(i32 0, 4) i32 @_ZL23NextProtoSelectCallbackP6ssl_stPPhS1_PKhjPv(ptr noundef %0, ptr noundef writeonly captures(none) %1, ptr noundef writeonly captures(none) %2, ptr readnone captures(none) %3, i32 %4, ptr readnone captures(none) %5) #10 {
  %7 = load i32, ptr @_ZL14g_config_index, align 4, !tbaa !6
  %8 = tail call noundef ptr @SSL_get_ex_data(ptr noundef %0, i32 noundef %7)
  %9 = getelementptr inbounds nuw i8, ptr %8, i64 256
  %10 = load i64, ptr %9, align 8, !tbaa !14
  %11 = icmp eq i64 %10, 0
  br i1 %11, label %16, label %12

12:                                               ; preds = %6
  %13 = getelementptr inbounds nuw i8, ptr %8, i64 248
  %14 = load ptr, ptr %13, align 8, !tbaa !45
  store ptr %14, ptr %1, align 8, !tbaa !32
  %15 = trunc i64 %10 to i8
  store i8 %15, ptr %2, align 1, !tbaa !17
  br label %16

16:                                               ; preds = %6, %12
  %.0 = phi i32 [ 0, %12 ], [ 3, %6 ]
  ret i32 %.0
}